target datalayout = "e-m:e-p270:32:32-p271:32:32-p272:64:64-i64:64-i128:128-f80:128-n8:16:32:64-S128"
target triple = "x86_64-pc-linux-gnu"

%class.Handle = type { ptr }
%class.instanceHandle = type { %class.Handle }
%class.JavaValue = type { i8, %"union.JavaValue::JavaCallValue" }
%"union.JavaValue::JavaCallValue" = type { double }
%class.ThreadShadow = type <{ ptr, ptr, ptr, i32, [4 x i8] }>

@_ZN9vmClasses8_klassesE = external global [0 x ptr], align 8
@_ZN6Symbol11_vm_symbolsE = external global [0 x ptr], align 8

; Function Attrs: mustprogress nounwind uwtable
define linkonce_odr hidden noundef ptr @_ZNK6Handle3objEv(ptr noundef nonnull align 8 dereferenceable(8) %0) #1 comdat align 2 {
  %2 = alloca ptr, align 8
  store ptr %0, ptr %2, align 8
  %3 = load ptr, ptr %2, align 8
  %4 = getelementptr inbounds %class.Handle, ptr %3, i32 0, i32 0
  %5 = load ptr, ptr %4, align 8
  %6 = icmp eq ptr %5, null
  br i1 %6, label %7, label %8

7:                                                ; preds = %1
  br label %12

8:                                                ; preds = %1
  %9 = getelementptr inbounds %class.Handle, ptr %3, i32 0, i32 0
  %10 = load ptr, ptr %9, align 8
  %11 = load ptr, ptr %10, align 8
  br label %12

12:                                               ; preds = %8, %7
  %13 = phi ptr [ null, %7 ], [ %11, %8 ]
  ret ptr %13
}

; Function Attrs: mustprogress nounwind uwtable
define linkonce_odr hidden noundef ptr @_ZNK14instanceHandle3objEv(ptr noundef nonnull align 8 dereferenceable(8) %0) #1 comdat align 2 {
  %2 = alloca ptr, align 8
  store ptr %0, ptr %2, align 8
  %3 = load ptr, ptr %2, align 8
  %4 = call noundef ptr @_ZNK6Handle3objEv(ptr noundef nonnull align 8 dereferenceable(8) %3)
  ret ptr %4
}

; Function Attrs: mustprogress nounwind uwtable
define linkonce_odr hidden noundef ptr @_ZN9vmClasses11check_klassEP13InstanceKlass(ptr noundef %0) #1 comdat align 2 {
  %2 = alloca ptr, align 8
  store ptr %0, ptr %2, align 8
  %3 = load ptr, ptr %2, align 8
  ret ptr %3
}

; Function Attrs: mustprogress nounwind uwtable
define linkonce_odr hidden void @_ZN6HandleC2Ev(ptr noundef nonnull align 8 dereferenceable(8) %0) unnamed_addr #1 comdat align 2 {
  %2 = alloca ptr, align 8
  store ptr %0, ptr %2, align 8
  %3 = load ptr, ptr %2, align 8
  %4 = getelementptr inbounds %class.Handle, ptr %3, i32 0, i32 0
  store ptr null, ptr %4, align 8
  ret void
}

; Function Attrs: mustprogress nounwind uwtable
define linkonce_odr hidden noundef ptr @_ZN9vmSymbols35threadgroup_runnable_void_signatureEv() #1 comdat align 2 {
  %1 = load ptr, ptr getelementptr inbounds ([0 x ptr], ptr @_ZN6Symbol11_vm_symbolsE, i64 0, i64 904), align 8
  ret ptr %1
}

; Function Attrs: mustprogress nounwind uwtable
define linkonce_odr hidden noundef ptr @_ZN9vmSymbols33threadgroup_string_void_signatureEv() #1 comdat align 2 {
  %1 = load ptr, ptr getelementptr inbounds ([0 x ptr], ptr @_ZN6Symbol11_vm_symbolsE, i64 0, i64 905), align 8
  ret ptr %1
}

; Function Attrs: mustprogress nounwind uwtable
define linkonce_odr hidden noundef ptr @_ZN9vmSymbols23object_initializer_nameEv() #1 comdat align 2 {
  %1 = load ptr, ptr getelementptr inbounds ([0 x ptr], ptr @_ZN6Symbol11_vm_symbolsE, i64 0, i64 382), align 8
  ret ptr %1
}

; Function Attrs: mustprogress nounwind uwtable
define linkonce_odr hidden void @_ZN9JavaValueC2E9BasicType(ptr noundef nonnull align 8 dereferenceable(16) %0, i8 noundef zeroext %1) unnamed_addr #1 comdat align 2 {
  %3 = alloca ptr, align 8
  %4 = alloca i8, align 1
  store ptr %0, ptr %3, align 8
  store i8 %1, ptr %4, align 1
  %5 = load ptr, ptr %3, align 8
  %6 = load i8, ptr %4, align 1
  %7 = getelementptr inbounds %class.JavaValue, ptr %5, i32 0, i32 0
  store i8 %6, ptr %7, align 8
  ret void
}

; Function Attrs: mustprogress nounwind uwtable
define linkonce_odr hidden noundef ptr @_ZNK14instanceHandleclEv(ptr noundef nonnull align 8 dereferenceable(8) %0) #1 comdat align 2 {
  %2 = alloca ptr, align 8
  store ptr %0, ptr %2, align 8
  %3 = load ptr, ptr %2, align 8
  %4 = call noundef ptr @_ZNK14instanceHandle3objEv(ptr noundef nonnull align 8 dereferenceable(8) %3)
  ret ptr %4
}

; Function Attrs: mustprogress nounwind uwtable
define linkonce_odr hidden noundef zeroext i1 @_ZNK12ThreadShadow21has_pending_exceptionEv(ptr noundef nonnull align 8 dereferenceable(28) %0) #1 comdat align 2 {
  %2 = alloca ptr, align 8
  store ptr %0, ptr %2, align 8
  %3 = load ptr, ptr %2, align 8
  %4 = getelementptr inbounds %class.ThreadShadow, ptr %3, i32 0, i32 1
  %5 = load ptr, ptr %4, align 8
  %6 = icmp ne ptr %5, null
  ret i1 %6
}

; Function Attrs: mustprogress nounwind uwtable
define linkonce_odr hidden noundef ptr @_ZN9vmClasses12Thread_klassEv() #1 comdat align 2 {
  %1 = load ptr, ptr getelementptr inbounds ([0 x ptr], ptr @_ZN9vmClasses8_klassesE, i64 0, i64 33), align 8
  %2 = call noundef ptr @_ZN9vmClasses11check_klassEP13InstanceKlass(ptr noundef %1)
  ret ptr %2
}

; Function Attrs: mustprogress nounwind uwtable
define hidden void @_ZN10JavaThread18allocate_threadObjE6HandlePKcbPS_(ptr noundef nonnull align 8 dereferenceable(1800) %0, ptr %1, ptr noundef %2, i1 noundef zeroext %3, ptr noundef %4) #1 align 2 {
  %6 = alloca %class.Handle, align 8
  %7 = alloca ptr, align 8
  %8 = alloca ptr, align 8
  %9 = alloca i8, align 1
  %10 = alloca ptr, align 8
  %11 = alloca ptr, align 8
  %12 = alloca %class.instanceHandle, align 8
  %13 = alloca %class.JavaValue, align 8
  %14 = alloca %class.Handle, align 8
  %15 = alloca %class.Handle, align 8
  %16 = alloca %class.Handle, align 8
  %17 = alloca %class.Handle, align 8
  %18 = alloca %class.Handle, align 8
  %19 = alloca %class.Handle, align 8
  %20 = alloca %class.Handle, align 8
  %21 = getelementptr inbounds %class.Handle, ptr %6, i32 0, i32 0
  store ptr %1, ptr %21, align 8
  store ptr %0, ptr %7, align 8
  store ptr %2, ptr %8, align 8
  %22 = zext i1 %3 to i8
  store i8 %22, ptr %9, align 1
  store ptr %4, ptr %10, align 8
  %23 = load ptr, ptr %7, align 8
  %24 = call noundef ptr @_ZN9vmClasses12Thread_klassEv()
  store ptr %24, ptr %11, align 8
  %25 = load ptr, ptr %11, align 8
  %26 = load ptr, ptr %10, align 8
  %27 = call ptr @_ZN13InstanceKlass24allocate_instance_handleEP10JavaThread(ptr noundef nonnull align 8 dereferenceable(464) %25, ptr noundef %26)
  %28 = getelementptr inbounds %class.instanceHandle, ptr %12, i32 0, i32 0
  %29 = getelementptr inbounds %class.Handle, ptr %28, i32 0, i32 0
  store ptr %27, ptr %29, align 8
  %30 = load ptr, ptr %10, align 8
  %31 = call noundef zeroext i1 @_ZNK12ThreadShadow21has_pending_exceptionEv(ptr noundef nonnull align 8 dereferenceable(28) %30)
  br i1 %31, label %32, label %33

32:                                               ; preds = %5
  br label %84

33:                                               ; preds = %5
  %34 = call noundef ptr @_ZNK14instanceHandleclEv(ptr noundef nonnull align 8 dereferenceable(8) %12)
  call void @_ZN16java_lang_Thread10set_threadEP7oopDescP10JavaThread(ptr noundef %34, ptr noundef %23)
  %35 = call noundef ptr @_ZNK14instanceHandleclEv(ptr noundef nonnull align 8 dereferenceable(8) %12)
  call void @_ZN10JavaThread20set_threadOopHandlesEP7oopDesc(ptr noundef nonnull align 8 dereferenceable(1800) %23, ptr noundef %35)
  call void @_ZN9JavaValueC2E9BasicType(ptr noundef nonnull align 8 dereferenceable(16) %13, i8 noundef zeroext 14)
  %36 = load ptr, ptr %8, align 8
  %37 = icmp ne ptr %36, null
  br i1 %37, label %38, label %62

38:                                               ; preds = %33
  %39 = load ptr, ptr %8, align 8
  %40 = load ptr, ptr %10, align 8
  %41 = call ptr @_ZN16java_lang_String15create_from_strEPKcP10JavaThread(ptr noundef %39, ptr noundef %40)
  %42 = getelementptr inbounds %class.Handle, ptr %14, i32 0, i32 0
  store ptr %41, ptr %42, align 8
  %43 = load ptr, ptr %10, align 8
  %44 = call noundef zeroext i1 @_ZNK12ThreadShadow21has_pending_exceptionEv(ptr noundef nonnull align 8 dereferenceable(28) %43)
  br i1 %44, label %45, label %46

45:                                               ; preds = %38
  br label %84

46:                                               ; preds = %38
  call void @llvm.memcpy.p0.p0.i64(ptr align 8 %15, ptr align 8 %12, i64 8, i1 false)
  %47 = load ptr, ptr %11, align 8
  %48 = call noundef ptr @_ZN9vmSymbols23object_initializer_nameEv()
  %49 = call noundef ptr @_ZN9vmSymbols33threadgroup_string_void_signatureEv()
  call void @llvm.memcpy.p0.p0.i64(ptr align 8 %16, ptr align 8 %6, i64 8, i1 false)
  call void @llvm.memcpy.p0.p0.i64(ptr align 8 %17, ptr align 8 %14, i64 8, i1 false)
  %50 = load ptr, ptr %10, align 8
  %51 = getelementptr inbounds %class.Handle, ptr %15, i32 0, i32 0
  %52 = load ptr, ptr %51, align 8
  %53 = getelementptr inbounds %class.Handle, ptr %16, i32 0, i32 0
  %54 = load ptr, ptr %53, align 8
  %55 = getelementptr inbounds %class.Handle, ptr %17, i32 0, i32 0
  %56 = load ptr, ptr %55, align 8
  %57 = ptrtoint ptr %56 to i64
  call void @_ZN9JavaCalls12call_specialEP9JavaValue6HandleP5KlassP6SymbolS6_S2_S2_P10JavaThread(ptr noundef %13, ptr %52, ptr noundef %47, ptr noundef %48, ptr noundef %49, ptr %54, i64 %57, ptr noundef %50)
  %58 = load ptr, ptr %10, align 8
  %59 = call noundef zeroext i1 @_ZNK12ThreadShadow21has_pending_exceptionEv(ptr noundef nonnull align 8 dereferenceable(28) %58)
  br i1 %59, label %60, label %61

60:                                               ; preds = %46
  br label %84

61:                                               ; preds = %46
  br label %78

62:                                               ; preds = %33
  call void @llvm.memcpy.p0.p0.i64(ptr align 8 %18, ptr align 8 %12, i64 8, i1 false)
  %63 = load ptr, ptr %11, align 8
  %64 = call noundef ptr @_ZN9vmSymbols23object_initializer_nameEv()
  %65 = call noundef ptr @_ZN9vmSymbols35threadgroup_runnable_void_signatureEv()
  call void @llvm.memcpy.p0.p0.i64(ptr align 8 %19, ptr align 8 %6, i64 8, i1 false)
  call void @_ZN6HandleC2Ev(ptr noundef nonnull align 8 dereferenceable(8) %20)
  %66 = load ptr, ptr %10, align 8
  %67 = getelementptr inbounds %class.Handle, ptr %18, i32 0, i32 0
  %68 = load ptr, ptr %67, align 8
  %69 = getelementptr inbounds %class.Handle, ptr %19, i32 0, i32 0
  %70 = load ptr, ptr %69, align 8
  %71 = getelementptr inbounds %class.Handle, ptr %20, i32 0, i32 0
  %72 = load ptr, ptr %71, align 8
  %73 = ptrtoint ptr %72 to i64
  call void @_ZN9JavaCalls12call_specialEP9JavaValue6HandleP5KlassP6SymbolS6_S2_S2_P10JavaThread(ptr noundef %13, ptr %68, ptr noundef %63, ptr noundef %64, ptr noundef %65, ptr %70, i64 %73, ptr noundef %66)
  %74 = load ptr, ptr %10, align 8
  %75 = call noundef zeroext i1 @_ZNK12ThreadShadow21has_pending_exceptionEv(ptr noundef nonnull align 8 dereferenceable(28) %74)
  br i1 %75, label %76, label %77

76:                                               ; preds = %62
  br label %84

77:                                               ; preds = %62
  br label %78

78:                                               ; preds = %77, %61
  %79 = call noundef i32 @_ZN2os12set_priorityEP6Thread14ThreadPriority(ptr noundef %23, i32 noundef 5)
  %80 = load i8, ptr %9, align 1
  %81 = trunc i8 %80 to i1
  br i1 %81, label %82, label %84

82:                                               ; preds = %78
  %83 = call noundef ptr @_ZNK14instanceHandleclEv(ptr noundef nonnull align 8 dereferenceable(8) %12)
  call void @_ZN16java_lang_Thread10set_daemonEP7oopDesc(ptr noundef %83)
  br label %84

84:                                               ; preds = %82, %78, %76, %60, %45, %32
  ret void
}