; Function Attrs: mustprogress nounwind uwtable
define hidden void @_ZN10JavaThread18allocate_threadObjE6HandlePKcbPS_(ptr noundef nonnull align 8 dereferenceable(1800) %0, ptr %1, ptr noundef %2, i1 noundef zeroext %3, ptr noundef %4) local_unnamed_addr #0 align 2 {
  %6 = alloca %class.JavaValue, align 8
  %7 = load ptr, ptr getelementptr inbounds (i8, ptr @_ZN9vmClasses8_klassesE, i64 264), align 8
  %8 = tail call ptr @_ZN13InstanceKlass24allocate_instance_handleEP10JavaThread(ptr noundef nonnull align 8 dereferenceable(464) %7, ptr noundef %4) #21
  %9 = getelementptr inbounds i8, ptr %4, i64 8
  %10 = load ptr, ptr %9, align 8
  %.not25 = icmp eq ptr %10, null
  br i1 %.not25, label %11, label %35

11:                                               ; preds = %5
  %12 = icmp eq ptr %8, null
  br i1 %12, label %_ZNK14instanceHandleclEv.exit.thread, label %13

_ZNK14instanceHandleclEv.exit.thread:             ; preds = %11
  tail call void @_ZN16java_lang_Thread10set_threadEP7oopDescP10JavaThread(ptr noundef null, ptr noundef nonnull %0) #21
  br label %_ZNK14instanceHandleclEv.exit20

13:                                               ; preds = %11
  %14 = load ptr, ptr %8, align 8
  tail call void @_ZN16java_lang_Thread10set_threadEP7oopDescP10JavaThread(ptr noundef %14, ptr noundef nonnull %0) #21
  %15 = load ptr, ptr %8, align 8
  br label %_ZNK14instanceHandleclEv.exit20

_ZNK14instanceHandleclEv.exit20:                  ; preds = %_ZNK14instanceHandleclEv.exit.thread, %13
  %16 = phi ptr [ %15, %13 ], [ null, %_ZNK14instanceHandleclEv.exit.thread ]
  tail call void @_ZN10JavaThread20set_threadOopHandlesEP7oopDesc(ptr noundef nonnull align 8 dereferenceable(1800) %0, ptr noundef %16)
  store i8 14, ptr %6, align 8
  %.not = icmp eq ptr %2, null
  br i1 %.not, label %25, label %17

17:                                               ; preds = %_ZNK14instanceHandleclEv.exit20
  %18 = tail call ptr @_ZN16java_lang_String15create_from_strEPKcP10JavaThread(ptr noundef nonnull %2, ptr noundef nonnull %4) #21
  %19 = load ptr, ptr %9, align 8
  %.not26 = icmp eq ptr %19, null
  br i1 %.not26, label %20, label %35

20:                                               ; preds = %17
  %21 = load ptr, ptr getelementptr inbounds (i8, ptr @_ZN6Symbol11_vm_symbolsE, i64 3056), align 8
  %22 = load ptr, ptr getelementptr inbounds (i8, ptr @_ZN6Symbol11_vm_symbolsE, i64 7240), align 8
  %23 = ptrtoint ptr %18 to i64
  call void @_ZN9JavaCalls12call_specialEP9JavaValue6HandleP5KlassP6SymbolS6_S2_S2_P10JavaThread(ptr noundef nonnull %6, ptr %8, ptr noundef nonnull %7, ptr noundef %21, ptr noundef %22, ptr %1, i64 %23, ptr noundef nonnull %4) #21
  %24 = load ptr, ptr %9, align 8
  %.not27 = icmp eq ptr %24, null
  br i1 %.not27, label %29, label %35

25:                                               ; preds = %_ZNK14instanceHandleclEv.exit20
  %26 = load ptr, ptr getelementptr inbounds (i8, ptr @_ZN6Symbol11_vm_symbolsE, i64 3056), align 8
  %27 = load ptr, ptr getelementptr inbounds (i8, ptr @_ZN6Symbol11_vm_symbolsE, i64 7232), align 8
  call void @_ZN9JavaCalls12call_specialEP9JavaValue6HandleP5KlassP6SymbolS6_S2_S2_P10JavaThread(ptr noundef nonnull %6, ptr %8, ptr noundef nonnull %7, ptr noundef %26, ptr noundef %27, ptr %1, i64 0, ptr noundef nonnull %4) #21
  %28 = load ptr, ptr %9, align 8
  %.not28 = icmp eq ptr %28, null
  br i1 %.not28, label %29, label %35

29:                                               ; preds = %25, %20
  %30 = call noundef i32 @_ZN2os12set_priorityEP6Thread14ThreadPriority(ptr noundef nonnull %0, i32 noundef 5) #21
  br i1 %3, label %31, label %35

31:                                               ; preds = %29
  br i1 %12, label %_ZNK14instanceHandleclEv.exit21, label %32

32:                                               ; preds = %31
  %33 = load ptr, ptr %8, align 8
  br label %_ZNK14instanceHandleclEv.exit21

_ZNK14instanceHandleclEv.exit21:                  ; preds = %31, %32
  %34 = phi ptr [ %33, %32 ], [ null, %31 ]
  call void @_ZN16java_lang_Thread10set_daemonEP7oopDesc(ptr noundef %34) #21
  br label %35

35:                                               ; preds = %25, %20, %17, %5, %_ZNK14instanceHandleclEv.exit21, %29
  ret void
}